target datalayout = "e-m:e-p270:32:32-p271:32:32-p272:64:64-i64:64-i128:128-f80:128-n8:16:32:64-S128"
target triple = "x86_64-pc-linux-gnu"

%"class.base::TimeDelta" = type { i64 }

@_ZZN4base8internal21ClockTicksToTimeDeltaEiE6kHertz = internal global i32 0, align 4
@_ZGVZN4base8internal21ClockTicksToTimeDeltaEiE6kHertz = internal global i64 0, align 8

; Function Attrs: mustprogress nounwind uwtable
define linkonce_odr void @_ZN4base9TimeDeltaC2El(ptr noundef nonnull align 8 dereferenceable(8) %0, i64 noundef %1) unnamed_addr #3 comdat align 2 {
  %3 = alloca ptr, align 8
  %4 = alloca i64, align 8
  store ptr %0, ptr %3, align 8, !tbaa !71
  store i64 %1, ptr %4, align 8, !tbaa !34
  %5 = load ptr, ptr %3, align 8
  %6 = getelementptr inbounds nuw %"class.base::TimeDelta", ptr %5, i32 0, i32 0
  %7 = load i64, ptr %4, align 8, !tbaa !34
  store i64 %7, ptr %6, align 8, !tbaa !73
  ret void
}

; Function Attrs: mustprogress uwtable
define linkonce_odr i64 @_ZN4base9TimeDelta16FromMicrosecondsEl(i64 noundef %0) #0 comdat align 2 {
  %2 = alloca %"class.base::TimeDelta", align 8
  %3 = alloca i64, align 8
  store i64 %0, ptr %3, align 8, !tbaa !34
  %4 = load i64, ptr %3, align 8, !tbaa !34
  call void @_ZN4base9TimeDeltaC2El(ptr noundef nonnull align 8 dereferenceable(8) %2, i64 noundef %4)
  %5 = getelementptr inbounds nuw %"class.base::TimeDelta", ptr %2, i32 0, i32 0
  %6 = load i64, ptr %5, align 8
  ret i64 %6
}

; Function Attrs: mustprogress uwtable
define i64 @_ZN4base8internal21ClockTicksToTimeDeltaEi(i32 noundef %0) #0 {
  %2 = alloca %"class.base::TimeDelta", align 8
  %3 = alloca i32, align 4
  store i32 %0, ptr %3, align 4, !tbaa !3
  %4 = load atomic i8, ptr @_ZGVZN4base8internal21ClockTicksToTimeDeltaEiE6kHertz acquire, align 8
  %5 = icmp eq i8 %4, 0
  br i1 %5, label %6, label %13, !prof !75

6:                                                ; preds = %1
  %7 = call i32 @__cxa_guard_acquire(ptr @_ZGVZN4base8internal21ClockTicksToTimeDeltaEiE6kHertz) #7
  %8 = icmp ne i32 %7, 0
  br i1 %8, label %9, label %13

9:                                                ; preds = %6
  %10 = call i64 @sysconf(i32 noundef 2) #7
  %11 = trunc i64 %10 to i32
  store i32 %11, ptr @_ZZN4base8internal21ClockTicksToTimeDeltaEiE6kHertz, align 4, !tbaa !3
  %12 = call ptr @llvm.invariant.start.p0(i64 4, ptr @_ZZN4base8internal21ClockTicksToTimeDeltaEiE6kHertz)
  call void @__cxa_guard_release(ptr @_ZGVZN4base8internal21ClockTicksToTimeDeltaEiE6kHertz) #7
  br label %13

13:                                               ; preds = %9, %6, %1
  %14 = load i32, ptr %3, align 4, !tbaa !3
  %15 = sext i32 %14 to i64
  %16 = mul nsw i64 1000000, %15
  %17 = load i32, ptr @_ZZN4base8internal21ClockTicksToTimeDeltaEiE6kHertz, align 4, !tbaa !3
  %18 = sext i32 %17 to i64
  %19 = sdiv i64 %16, %18
  %20 = call i64 @_ZN4base9TimeDelta16FromMicrosecondsEl(i64 noundef %19)
  %21 = getelementptr inbounds nuw %"class.base::TimeDelta", ptr %2, i32 0, i32 0
  store i64 %20, ptr %21, align 8
  %22 = getelementptr inbounds nuw %"class.base::TimeDelta", ptr %2, i32 0, i32 0
  %23 = load i64, ptr %22, align 8
  ret i64 %23
}