; Function Attrs: mustprogress nounwind uwtable
define range(i64 -2147483648000000, 2147483648000001) i64 @_ZN4base8internal21ClockTicksToTimeDeltaEi(i32 noundef %0) local_unnamed_addr #4 {
  %2 = load atomic i8, ptr @_ZGVZN4base8internal21ClockTicksToTimeDeltaEiE6kHertz acquire, align 8
  %3 = icmp eq i8 %2, 0
  br i1 %3, label %4, label %10, !prof !55

4:                                                ; preds = %1
  %5 = tail call i32 @__cxa_guard_acquire(ptr nonnull @_ZGVZN4base8internal21ClockTicksToTimeDeltaEiE6kHertz) #18
  %.not = icmp eq i32 %5, 0
  br i1 %.not, label %10, label %6

6:                                                ; preds = %4
  %7 = tail call i64 @sysconf(i32 noundef 2) #18
  %8 = trunc i64 %7 to i32
  store i32 %8, ptr @_ZZN4base8internal21ClockTicksToTimeDeltaEiE6kHertz, align 4, !tbaa !53
  %9 = tail call ptr @llvm.invariant.start.p0(i64 4, ptr nonnull @_ZZN4base8internal21ClockTicksToTimeDeltaEiE6kHertz)
  tail call void @__cxa_guard_release(ptr nonnull @_ZGVZN4base8internal21ClockTicksToTimeDeltaEiE6kHertz) #18
  br label %10

10:                                               ; preds = %6, %4, %1
  %11 = sext i32 %0 to i64
  %12 = mul nsw i64 %11, 1000000
  %13 = load i32, ptr @_ZZN4base8internal21ClockTicksToTimeDeltaEiE6kHertz, align 4, !tbaa !53
  %14 = sext i32 %13 to i64
  %15 = sdiv i64 %12, %14
  ret i64 %15
}